; Function Attrs: nofree norecurse nosync nounwind memory(read, inaccessiblemem: none) uwtable
define i64 @pqueue_size(ptr noundef readonly captures(none) %0) local_unnamed_addr #7 {
  %.045 = load ptr, ptr %0, align 8, !tbaa !16
  %.not6 = icmp eq ptr %.045, null
  br i1 %.not6, label %._crit_edge, label %.lr.ph

.lr.ph:                                           ; preds = %1, %.lr.ph
  %.048 = phi ptr [ %.04, %.lr.ph ], [ %.045, %1 ]
  %.07 = phi i64 [ %2, %.lr.ph ], [ 0, %1 ]
  %2 = add i64 %.07, 1
  %3 = getelementptr inbounds nuw i8, ptr %.048, i64 16
  %.04 = load ptr, ptr %3, align 8, !tbaa !16
  %.not = icmp eq ptr %.04, null
  br i1 %.not, label %._crit_edge, label %.lr.ph, !llvm.loop !17

._crit_edge:                                      ; preds = %.lr.ph, %1
  %.0.lcssa = phi i64 [ 0, %1 ], [ %2, %.lr.ph ]
  ret i64 %.0.lcssa
}